; Function Attrs: nounwind uwtable
define internal fastcc noundef ptr @_readFieldSelect() unnamed_addr #0 {
  %1 = alloca i32, align 4
  %2 = tail call noundef ptr @palloc0(i64 noundef 32) #10
  store i32 25, ptr %2, align 4
  call void @llvm.lifetime.start.p0(i64 4, ptr nonnull %1) #10
  %3 = call ptr @pg_strtok(ptr noundef nonnull %1) #10
  %4 = call ptr @nodeRead(ptr noundef null, i32 noundef 0) #10
  %5 = getelementptr inbounds nuw i8, ptr %2, i64 8
  store ptr %4, ptr %5, align 8
  %6 = call ptr @pg_strtok(ptr noundef nonnull %1) #10
  %7 = call ptr @pg_strtok(ptr noundef nonnull %1) #10
  %8 = call i64 @strtol(ptr noundef nonnull captures(none) %7, ptr noundef null, i32 noundef 10) #10
  %9 = trunc i64 %8 to i16
  %10 = getelementptr inbounds nuw i8, ptr %2, i64 16
  store i16 %9, ptr %10, align 8
  %11 = call ptr @pg_strtok(ptr noundef nonnull %1) #10
  %12 = call ptr @pg_strtok(ptr noundef nonnull %1) #10
  %13 = call i64 @strtoul(ptr noundef captures(none) %12, ptr noundef null, i32 noundef 10) #10
  %14 = trunc i64 %13 to i32
  %15 = getelementptr inbounds nuw i8, ptr %2, i64 20
  store i32 %14, ptr %15, align 4
  %16 = call ptr @pg_strtok(ptr noundef nonnull %1) #10
  %17 = call ptr @pg_strtok(ptr noundef nonnull %1) #10
  %18 = call i64 @strtol(ptr noundef nonnull captures(none) %17, ptr noundef null, i32 noundef 10) #10
  %19 = trunc i64 %18 to i32
  %20 = getelementptr inbounds nuw i8, ptr %2, i64 24
  store i32 %19, ptr %20, align 8
  %21 = call ptr @pg_strtok(ptr noundef nonnull %1) #10
  %22 = call ptr @pg_strtok(ptr noundef nonnull %1) #10
  %23 = call i64 @strtoul(ptr noundef captures(none) %22, ptr noundef null, i32 noundef 10) #10
  %24 = trunc i64 %23 to i32
  %25 = getelementptr inbounds nuw i8, ptr %2, i64 28
  store i32 %24, ptr %25, align 4
  call void @llvm.lifetime.end.p0(i64 4, ptr nonnull %1) #10
  ret ptr %2
}